; Function Attrs: mustprogress uwtable
define noundef ptr @_ZN6icu_7511MeasureUnit17getAvailableTypesER10UErrorCode(ptr noundef nonnull align 4 dereferenceable(4) %errorCode) local_unnamed_addr #1 align 2 personality ptr @__gxx_personality_v0 {
entry:
  %call = tail call ptr @uenum_openCharStringsEnumeration_75(ptr noundef nonnull @_ZN6icu_75L6gTypesE, i32 noundef 23, ptr noundef nonnull %errorCode)
  %0 = load i32, ptr %errorCode, align 4
  %cmp.i = icmp slt i32 %0, 1
  br i1 %cmp.i, label %if.end, label %return.sink.split

if.end:                                           ; preds = %entry
  %call2 = tail call noundef ptr @_ZN6icu_757UMemorynwEm(i64 noundef 128) #17
  %new.isnull = icmp eq ptr %call2, null
  br i1 %new.isnull, label %if.then3, label %new.notnull

new.notnull:                                      ; preds = %if.end
  invoke void @_ZN6icu_7518UStringEnumerationC1EP12UEnumeration(ptr noundef nonnull align 8 dereferenceable(128) %call2, ptr noundef %call)
          to label %return unwind label %lpad

if.then3:                                         ; preds = %if.end
  store i32 7, ptr %errorCode, align 4
  br label %return.sink.split

lpad:                                             ; preds = %new.notnull
  %1 = landingpad { ptr, i32 }
          cleanup
  tail call void @_ZN6icu_757UMemorydlEPv(ptr noundef nonnull %call2) #17
  resume { ptr, i32 } %1

return.sink.split:                                ; preds = %entry, %if.then3
  tail call void @uenum_close_75(ptr noundef %call)
  br label %return

return:                                           ; preds = %return.sink.split, %new.notnull
  %retval.0 = phi ptr [ %call2, %new.notnull ], [ null, %return.sink.split ]
  ret ptr %retval.0
}